; Function Attrs: mustprogress nofree norecurse nosync nounwind willreturn memory(argmem: read) uwtable
define double @Cudd_ReadCacheLookUps(ptr noundef readonly captures(none) %0) local_unnamed_addr #8 {
  %2 = getelementptr inbounds nuw i8, ptr %0, i64 112
  %3 = load double, ptr %2, align 8
  %4 = getelementptr inbounds nuw i8, ptr %0, i64 104
  %5 = load double, ptr %4, align 8
  %6 = fadd double %3, %5
  %7 = getelementptr inbounds nuw i8, ptr %0, i64 680
  %8 = load double, ptr %7, align 8
  %9 = fadd double %6, %8
  %10 = getelementptr inbounds nuw i8, ptr %0, i64 688
  %11 = load double, ptr %10, align 8
  %12 = fadd double %9, %11
  ret double %12
}